target datalayout = "e-m:e-p270:32:32-p271:32:32-p272:64:64-i64:64-i128:128-f80:128-n8:16:32:64-S128"
target triple = "x86_64-unknown-linux-gnu"

%"class.std::set.0" = type { %"class.std::_Rb_tree.1" }
%"class.std::_Rb_tree.1" = type { %"struct.std::_Rb_tree<QuantLib::Observer *, QuantLib::Observer *, std::_Identity<QuantLib::Observer *>, std::less<QuantLib::Observer *>>::_Rb_tree_impl" }
%"struct.std::_Rb_tree<QuantLib::Observer *, QuantLib::Observer *, std::_Identity<QuantLib::Observer *>, std::less<QuantLib::Observer *>>::_Rb_tree_impl" = type { [8 x i8], %"struct.std::_Rb_tree_header" }
%"struct.std::_Rb_tree_header" = type { %"struct.std::_Rb_tree_node_base", i64 }
%"struct.std::_Rb_tree_node_base" = type { i32, ptr, ptr, ptr }
%"class.QuantLib::Date" = type { i64 }
%"class.boost::detail::shared_count" = type { ptr }
%"class.std::set" = type { %"class.std::_Rb_tree" }
%"class.std::_Rb_tree" = type { %"struct.std::_Rb_tree<boost::shared_ptr<QuantLib::Observable>, boost::shared_ptr<QuantLib::Observable>, std::_Identity<boost::shared_ptr<QuantLib::Observable>>, std::less<boost::shared_ptr<QuantLib::Observable>>>::_Rb_tree_impl" }
%"struct.std::_Rb_tree<boost::shared_ptr<QuantLib::Observable>, boost::shared_ptr<QuantLib::Observable>, std::_Identity<boost::shared_ptr<QuantLib::Observable>>, std::less<boost::shared_ptr<QuantLib::Observable>>>::_Rb_tree_impl" = type { [8 x i8], %"struct.std::_Rb_tree_header" }
%"class.QuantLib::Observable" = type { ptr, %"class.std::set.0" }
%"class.QuantLib::Observer" = type { ptr, %"class.std::set" }
%"class.QuantLib::CashFlow.base" = type <{ %"class.QuantLib::Event.base", %"class.QuantLib::LazyObject.base" }>
%"class.QuantLib::Event.base" = type { ptr }
%"class.QuantLib::LazyObject.base" = type <{ ptr, i8, i8, i8, i8 }>
%"class.QuantLib::Null" = type { i8 }
%"class.QuantLib::DayCounter" = type { %"class.boost::shared_ptr.16" }
%"class.boost::shared_ptr.16" = type { ptr, %"class.boost::detail::shared_count" }
%"class.QuantLib::DigitalCoupon" = type <{ %"class.QuantLib::FloatingRateCoupon.base", %"class.boost::shared_ptr.52", double, double, double, double, i8, i8, i8, i8, [4 x i8], double, double, double, double, double, double, i8, i8, [2 x i8], i32, i8, [7 x i8], %"class.QuantLib::Observable", %"class.QuantLib::Observer" }>
%"class.QuantLib::FloatingRateCoupon.base" = type { %"class.QuantLib::Coupon.base", %"class.boost::shared_ptr.50", %"class.QuantLib::DayCounter", i32, double, double, i8, %"class.boost::shared_ptr.51", double }
%"class.QuantLib::Coupon.base" = type { %"class.QuantLib::CashFlow.base", %"class.QuantLib::Date", double, %"class.QuantLib::Date", %"class.QuantLib::Date", %"class.QuantLib::Date", %"class.QuantLib::Date", %"class.QuantLib::Date", double }
%"class.boost::shared_ptr.50" = type { ptr, %"class.boost::detail::shared_count" }
%"class.boost::shared_ptr.51" = type { ptr, %"class.boost::detail::shared_count" }
%"class.boost::shared_ptr.52" = type { ptr, %"class.boost::detail::shared_count" }
%"class.QuantLib::CappedFlooredCoupon" = type { %"class.QuantLib::FloatingRateCoupon.base", %"class.boost::shared_ptr.52", i8, i8, double, double, %"class.QuantLib::Observable", %"class.QuantLib::Observer" }

@.str.16 = private unnamed_addr constant [8 x i8] c"px != 0\00", align 1
@.str.17 = private unnamed_addr constant [102 x i8] c"generated/home/dtcxzyw/WorkSpace/SDK/vcpkg/installed/x64-linux/include/boost/smart_ptr/shared_ptr.hpp\00", align 1
@__PRETTY_FUNCTION__._ZNK5boost10shared_ptrIN8QuantLib18FloatingRateCouponEEptEv = private unnamed_addr constant [153 x i8] c"typename boost::detail::sp_member_access<T>::type boost::shared_ptr<QuantLib::FloatingRateCoupon>::operator->() const [T = QuantLib::FloatingRateCoupon]\00", align 1

; Function Attrs: mustprogress nounwind uwtable
define linkonce_odr noundef float @_ZNSt14numeric_limitsIfE3maxEv() #1 comdat align 2 {
entry:
  ret float 0x47EFFFFFE0000000
}

; Function Attrs: mustprogress nounwind uwtable
define linkonce_odr noundef float @_ZN8QuantLib6detail17FloatingPointNullILb1EE9nullValueEv() #1 comdat align 2 {
entry:
  %call = call noundef float @_ZNSt14numeric_limitsIfE3maxEv() #14
  ret float %call
}

; Function Attrs: mustprogress uwtable
define linkonce_odr noundef ptr @_ZNK5boost10shared_ptrIN8QuantLib18FloatingRateCouponEEptEv(ptr noundef nonnull align 8 dereferenceable(16) %this) #2 comdat align 2 {
entry:
  %this.addr = alloca ptr, align 8
  store ptr %this, ptr %this.addr, align 8, !tbaa !3
  %this1 = load ptr, ptr %this.addr, align 8
  %px = getelementptr inbounds nuw %"class.boost::shared_ptr.52", ptr %this1, i32 0, i32 0
  %0 = load ptr, ptr %px, align 8, !tbaa !64
  %cmp = icmp ne ptr %0, null
  %lnot = xor i1 %cmp, true
  %lnot2 = xor i1 %lnot, true
  %conv = zext i1 %lnot2 to i64
  %expval = call i64 @llvm.expect.i64(i64 %conv, i64 1)
  %tobool = icmp ne i64 %expval, 0
  br i1 %tobool, label %cond.true, label %cond.false

cond.true:                                        ; preds = %entry
  br label %cond.end

cond.false:                                       ; preds = %entry
  call void @_ZN5boost16assertion_failedEPKcS1_S1_l(ptr noundef @.str.16, ptr noundef @__PRETTY_FUNCTION__._ZNK5boost10shared_ptrIN8QuantLib18FloatingRateCouponEEptEv, ptr noundef @.str.17, i64 noundef 784)
  br label %cond.end

cond.end:                                         ; preds = %cond.false, %cond.true
  %px3 = getelementptr inbounds nuw %"class.boost::shared_ptr.52", ptr %this1, i32 0, i32 0
  %1 = load ptr, ptr %px3, align 8, !tbaa !64
  ret ptr %1
}

; Function Attrs: mustprogress uwtable
define linkonce_odr noundef double @_ZNK8QuantLib4NullIdEcvdEv(ptr noundef nonnull align 1 dereferenceable(1) %this) #2 comdat align 2 {
entry:
  %this.addr = alloca ptr, align 8
  store ptr %this, ptr %this.addr, align 8, !tbaa !3
  %call = call noundef float @_ZN8QuantLib6detail17FloatingPointNullILb1EE9nullValueEv()
  %conv = fpext float %call to double
  ret double %conv
}

; Function Attrs: mustprogress uwtable
define noundef double @_ZNK8QuantLib13DigitalCoupon13putOptionRateEv(ptr noundef nonnull align 8 dereferenceable(289) %this) #2 align 2 personality ptr @__gxx_personality_v0 {
entry:
  %this.addr = alloca ptr, align 8
  %putOptionRate = alloca double, align 8
  %next = alloca %"class.QuantLib::CappedFlooredCoupon", align 8
  %ref.tmp = alloca %"class.QuantLib::Null", align 1
  %previous = alloca %"class.QuantLib::CappedFlooredCoupon", align 8
  %ref.tmp5 = alloca %"class.QuantLib::Null", align 1
  %exn.slot = alloca ptr, align 8
  %ehselector.slot = alloca i32, align 4
  %atStrike = alloca %"class.QuantLib::CappedFlooredCoupon", align 8
  %ref.tmp22 = alloca %"class.QuantLib::Null", align 1
  %put = alloca double, align 8
  store ptr %this, ptr %this.addr, align 8, !tbaa !3
  %this1 = load ptr, ptr %this.addr, align 8
  call void @llvm.lifetime.start.p0(i64 8, ptr %putOptionRate) #14
  store double 0.000000e+00, ptr %putOptionRate, align 8, !tbaa !33
  %hasPutStrike_ = getelementptr inbounds nuw %"class.QuantLib::DigitalCoupon", ptr %this1, i32 0, i32 17
  %0 = load i8, ptr %hasPutStrike_, align 8, !tbaa !52, !range !15, !noundef !16
  %loadedv = trunc i8 %0 to i1
  br i1 %loadedv, label %if.then, label %if.end42

if.then:                                          ; preds = %entry
  %isPutCashOrNothing_ = getelementptr inbounds nuw %"class.QuantLib::DigitalCoupon", ptr %this1, i32 0, i32 9
  %1 = load i8, ptr %isPutCashOrNothing_, align 1, !tbaa !51, !range !15, !noundef !16
  %loadedv2 = trunc i8 %1 to i1
  br i1 %loadedv2, label %cond.true, label %cond.false

cond.true:                                        ; preds = %if.then
  %putDigitalPayoff_ = getelementptr inbounds nuw %"class.QuantLib::DigitalCoupon", ptr %this1, i32 0, i32 12
  %2 = load double, ptr %putDigitalPayoff_, align 8, !tbaa !63
  br label %cond.end

cond.false:                                       ; preds = %if.then
  %putStrike_ = getelementptr inbounds nuw %"class.QuantLib::DigitalCoupon", ptr %this1, i32 0, i32 3
  %3 = load double, ptr %putStrike_, align 8, !tbaa !62
  br label %cond.end

cond.end:                                         ; preds = %cond.false, %cond.true
  %cond = phi double [ %2, %cond.true ], [ %3, %cond.false ]
  store double %cond, ptr %putOptionRate, align 8, !tbaa !33
  call void @llvm.lifetime.start.p0(i64 328, ptr %next) #14
  %underlying_ = getelementptr inbounds nuw %"class.QuantLib::DigitalCoupon", ptr %this1, i32 0, i32 1
  call void @llvm.lifetime.start.p0(i64 1, ptr %ref.tmp) #14
  %call = call noundef double @_ZNK8QuantLib4NullIdEcvdEv(ptr noundef nonnull align 1 dereferenceable(1) %ref.tmp)
  %putStrike_3 = getelementptr inbounds nuw %"class.QuantLib::DigitalCoupon", ptr %this1, i32 0, i32 3
  %4 = load double, ptr %putStrike_3, align 8, !tbaa !62
  %putRightEps_ = getelementptr inbounds nuw %"class.QuantLib::DigitalCoupon", ptr %this1, i32 0, i32 16
  %5 = load double, ptr %putRightEps_, align 8, !tbaa !55
  %add = fadd double %4, %5
  call void @_ZN8QuantLib19CappedFlooredCouponC1ERKN5boost10shared_ptrINS_18FloatingRateCouponEEEdd(ptr noundef nonnull align 8 dereferenceable(216) %next, ptr noundef nonnull align 8 dereferenceable(16) %underlying_, double noundef %call, double noundef %add)
  call void @llvm.lifetime.end.p0(i64 1, ptr %ref.tmp) #14
  call void @llvm.lifetime.start.p0(i64 328, ptr %previous) #14
  %underlying_4 = getelementptr inbounds nuw %"class.QuantLib::DigitalCoupon", ptr %this1, i32 0, i32 1
  call void @llvm.lifetime.start.p0(i64 1, ptr %ref.tmp5) #14
  %call6 = invoke noundef double @_ZNK8QuantLib4NullIdEcvdEv(ptr noundef nonnull align 1 dereferenceable(1) %ref.tmp5)
          to label %invoke.cont unwind label %lpad

invoke.cont:                                      ; preds = %cond.end
  %putStrike_7 = getelementptr inbounds nuw %"class.QuantLib::DigitalCoupon", ptr %this1, i32 0, i32 3
  %6 = load double, ptr %putStrike_7, align 8, !tbaa !62
  %putLeftEps_ = getelementptr inbounds nuw %"class.QuantLib::DigitalCoupon", ptr %this1, i32 0, i32 15
  %7 = load double, ptr %putLeftEps_, align 8, !tbaa !56
  %sub = fsub double %6, %7
  invoke void @_ZN8QuantLib19CappedFlooredCouponC1ERKN5boost10shared_ptrINS_18FloatingRateCouponEEEdd(ptr noundef nonnull align 8 dereferenceable(216) %previous, ptr noundef nonnull align 8 dereferenceable(16) %underlying_4, double noundef %call6, double noundef %sub)
          to label %invoke.cont8 unwind label %lpad

invoke.cont8:                                     ; preds = %invoke.cont
  call void @llvm.lifetime.end.p0(i64 1, ptr %ref.tmp5) #14
  %call11 = invoke noundef double @_ZNK8QuantLib19CappedFlooredCoupon4rateEv(ptr noundef nonnull align 8 dereferenceable(216) %next)
          to label %invoke.cont10 unwind label %lpad9

invoke.cont10:                                    ; preds = %invoke.cont8
  %call13 = invoke noundef double @_ZNK8QuantLib19CappedFlooredCoupon4rateEv(ptr noundef nonnull align 8 dereferenceable(216) %previous)
          to label %invoke.cont12 unwind label %lpad9

invoke.cont12:                                    ; preds = %invoke.cont10
  %sub14 = fsub double %call11, %call13
  %putLeftEps_15 = getelementptr inbounds nuw %"class.QuantLib::DigitalCoupon", ptr %this1, i32 0, i32 15
  %8 = load double, ptr %putLeftEps_15, align 8, !tbaa !56
  %putRightEps_16 = getelementptr inbounds nuw %"class.QuantLib::DigitalCoupon", ptr %this1, i32 0, i32 16
  %9 = load double, ptr %putRightEps_16, align 8, !tbaa !55
  %add17 = fadd double %8, %9
  %div = fdiv double %sub14, %add17
  %10 = load double, ptr %putOptionRate, align 8, !tbaa !33
  %mul = fmul double %10, %div
  store double %mul, ptr %putOptionRate, align 8, !tbaa !33
  %isPutCashOrNothing_18 = getelementptr inbounds nuw %"class.QuantLib::DigitalCoupon", ptr %this1, i32 0, i32 9
  %11 = load i8, ptr %isPutCashOrNothing_18, align 1, !tbaa !51, !range !15, !noundef !16
  %loadedv19 = trunc i8 %11 to i1
  br i1 %loadedv19, label %if.end, label %if.then20

if.then20:                                        ; preds = %invoke.cont12
  call void @llvm.lifetime.start.p0(i64 328, ptr %atStrike) #14
  %underlying_21 = getelementptr inbounds nuw %"class.QuantLib::DigitalCoupon", ptr %this1, i32 0, i32 1
  call void @llvm.lifetime.start.p0(i64 1, ptr %ref.tmp22) #14
  %call25 = invoke noundef double @_ZNK8QuantLib4NullIdEcvdEv(ptr noundef nonnull align 1 dereferenceable(1) %ref.tmp22)
          to label %invoke.cont24 unwind label %lpad23

invoke.cont24:                                    ; preds = %if.then20
  %putStrike_26 = getelementptr inbounds nuw %"class.QuantLib::DigitalCoupon", ptr %this1, i32 0, i32 3
  %12 = load double, ptr %putStrike_26, align 8, !tbaa !62
  invoke void @_ZN8QuantLib19CappedFlooredCouponC1ERKN5boost10shared_ptrINS_18FloatingRateCouponEEEdd(ptr noundef nonnull align 8 dereferenceable(216) %atStrike, ptr noundef nonnull align 8 dereferenceable(16) %underlying_21, double noundef %call25, double noundef %12)
          to label %invoke.cont27 unwind label %lpad23

invoke.cont27:                                    ; preds = %invoke.cont24
  call void @llvm.lifetime.end.p0(i64 1, ptr %ref.tmp22) #14
  call void @llvm.lifetime.start.p0(i64 8, ptr %put) #14
  %underlying_28 = getelementptr inbounds nuw %"class.QuantLib::DigitalCoupon", ptr %this1, i32 0, i32 1
  %call31 = invoke noundef ptr @_ZNK5boost10shared_ptrIN8QuantLib18FloatingRateCouponEEptEv(ptr noundef nonnull align 8 dereferenceable(16) %underlying_28)
          to label %invoke.cont30 unwind label %lpad29

invoke.cont30:                                    ; preds = %invoke.cont27
  %vtable = load ptr, ptr %call31, align 8, !tbaa !20
  %vfn = getelementptr inbounds ptr, ptr %vtable, i64 9
  %13 = load ptr, ptr %vfn, align 8
  %call33 = invoke noundef double %13(ptr noundef nonnull align 8 dereferenceable(176) %call31)
          to label %invoke.cont32 unwind label %lpad29

invoke.cont32:                                    ; preds = %invoke.cont30
  %fneg = fneg double %call33
  %call35 = invoke noundef double @_ZNK8QuantLib19CappedFlooredCoupon4rateEv(ptr noundef nonnull align 8 dereferenceable(216) %atStrike)
          to label %invoke.cont34 unwind label %lpad29

invoke.cont34:                                    ; preds = %invoke.cont32
  %add36 = fadd double %fneg, %call35
  store double %add36, ptr %put, align 8, !tbaa !33
  %14 = load double, ptr %put, align 8, !tbaa !33
  %15 = load double, ptr %putOptionRate, align 8, !tbaa !33
  %sub37 = fsub double %15, %14
  store double %sub37, ptr %putOptionRate, align 8, !tbaa !33
  call void @llvm.lifetime.end.p0(i64 8, ptr %put) #14
  call void @_ZN8QuantLib19CappedFlooredCouponD1Ev(ptr noundef nonnull align 8 dereferenceable(216) %atStrike) #14
  call void @llvm.lifetime.end.p0(i64 328, ptr %atStrike) #14
  br label %if.end

lpad:                                             ; preds = %invoke.cont, %cond.end
  %16 = landingpad { ptr, i32 }
          cleanup
  %17 = extractvalue { ptr, i32 } %16, 0
  store ptr %17, ptr %exn.slot, align 8
  %18 = extractvalue { ptr, i32 } %16, 1
  store i32 %18, ptr %ehselector.slot, align 4
  call void @llvm.lifetime.end.p0(i64 1, ptr %ref.tmp5) #14
  br label %ehcleanup39

lpad9:                                            ; preds = %invoke.cont10, %invoke.cont8
  %19 = landingpad { ptr, i32 }
          cleanup
  %20 = extractvalue { ptr, i32 } %19, 0
  store ptr %20, ptr %exn.slot, align 8
  %21 = extractvalue { ptr, i32 } %19, 1
  store i32 %21, ptr %ehselector.slot, align 4
  br label %ehcleanup38

lpad23:                                           ; preds = %invoke.cont24, %if.then20
  %22 = landingpad { ptr, i32 }
          cleanup
  %23 = extractvalue { ptr, i32 } %22, 0
  store ptr %23, ptr %exn.slot, align 8
  %24 = extractvalue { ptr, i32 } %22, 1
  store i32 %24, ptr %ehselector.slot, align 4
  call void @llvm.lifetime.end.p0(i64 1, ptr %ref.tmp22) #14
  br label %ehcleanup

lpad29:                                           ; preds = %invoke.cont32, %invoke.cont30, %invoke.cont27
  %25 = landingpad { ptr, i32 }
          cleanup
  %26 = extractvalue { ptr, i32 } %25, 0
  store ptr %26, ptr %exn.slot, align 8
  %27 = extractvalue { ptr, i32 } %25, 1
  store i32 %27, ptr %ehselector.slot, align 4
  call void @llvm.lifetime.end.p0(i64 8, ptr %put) #14
  call void @_ZN8QuantLib19CappedFlooredCouponD1Ev(ptr noundef nonnull align 8 dereferenceable(216) %atStrike) #14
  br label %ehcleanup

ehcleanup:                                        ; preds = %lpad29, %lpad23
  call void @llvm.lifetime.end.p0(i64 328, ptr %atStrike) #14
  br label %ehcleanup38

if.end:                                           ; preds = %invoke.cont34, %invoke.cont12
  call void @_ZN8QuantLib19CappedFlooredCouponD1Ev(ptr noundef nonnull align 8 dereferenceable(216) %previous) #14
  call void @llvm.lifetime.end.p0(i64 328, ptr %previous) #14
  call void @_ZN8QuantLib19CappedFlooredCouponD1Ev(ptr noundef nonnull align 8 dereferenceable(216) %next) #14
  call void @llvm.lifetime.end.p0(i64 328, ptr %next) #14
  br label %if.end42

ehcleanup38:                                      ; preds = %ehcleanup, %lpad9
  call void @_ZN8QuantLib19CappedFlooredCouponD1Ev(ptr noundef nonnull align 8 dereferenceable(216) %previous) #14
  br label %ehcleanup39

ehcleanup39:                                      ; preds = %ehcleanup38, %lpad
  call void @llvm.lifetime.end.p0(i64 328, ptr %previous) #14
  call void @_ZN8QuantLib19CappedFlooredCouponD1Ev(ptr noundef nonnull align 8 dereferenceable(216) %next) #14
  call void @llvm.lifetime.end.p0(i64 328, ptr %next) #14
  call void @llvm.lifetime.end.p0(i64 8, ptr %putOptionRate) #14
  br label %eh.resume

if.end42:                                         ; preds = %if.end, %entry
  %28 = load double, ptr %putOptionRate, align 8, !tbaa !33
  call void @llvm.lifetime.end.p0(i64 8, ptr %putOptionRate) #14
  ret double %28

eh.resume:                                        ; preds = %ehcleanup39
  %exn = load ptr, ptr %exn.slot, align 8
  %sel = load i32, ptr %ehselector.slot, align 4
  %lpad.val = insertvalue { ptr, i32 } poison, ptr %exn, 0
  %lpad.val44 = insertvalue { ptr, i32 } %lpad.val, i32 %sel, 1
  resume { ptr, i32 } %lpad.val44
}