; Function Attrs: mustprogress uwtable
define noundef double @_ZNK8QuantLib13DigitalCoupon13putOptionRateEv(ptr noundef nonnull align 8 dereferenceable(289) %this) local_unnamed_addr #8 align 2 personality ptr @__gxx_personality_v0 {
entry:
  %next = alloca %"class.QuantLib::CappedFlooredCoupon", align 8
  %previous = alloca %"class.QuantLib::CappedFlooredCoupon", align 8
  %atStrike = alloca %"class.QuantLib::CappedFlooredCoupon", align 8
  %hasPutStrike_ = getelementptr inbounds nuw i8, ptr %this, i64 280
  %0 = load i8, ptr %hasPutStrike_, align 8, !tbaa !70, !range !26, !noundef !27
  %loadedv = trunc nuw i8 %0 to i1
  br i1 %loadedv, label %invoke.cont, label %if.end42

invoke.cont:                                      ; preds = %entry
  %isPutCashOrNothing_ = getelementptr inbounds nuw i8, ptr %this, i64 227
  %1 = load i8, ptr %isPutCashOrNothing_, align 1, !tbaa !69, !range !26, !noundef !27
  %loadedv2 = trunc nuw i8 %1 to i1
  %putDigitalPayoff_ = getelementptr inbounds nuw i8, ptr %this, i64 240
  %putStrike_ = getelementptr inbounds nuw i8, ptr %this, i64 200
  %putDigitalPayoff_.val = load double, ptr %putDigitalPayoff_, align 8
  %putStrike_.val = load double, ptr %putStrike_, align 8
  %cond = select i1 %loadedv2, double %putDigitalPayoff_.val, double %putStrike_.val
  call void @llvm.lifetime.start.p0(i64 328, ptr nonnull %next) #27
  %underlying_ = getelementptr inbounds nuw i8, ptr %this, i64 176
  %putRightEps_ = getelementptr inbounds nuw i8, ptr %this, i64 272
  %2 = load double, ptr %putRightEps_, align 8, !tbaa !78
  %add = fadd double %putStrike_.val, %2
  call void @_ZN8QuantLib19CappedFlooredCouponC1ERKN5boost10shared_ptrINS_18FloatingRateCouponEEEdd(ptr noundef nonnull align 8 dereferenceable(216) %next, ptr noundef nonnull align 8 dereferenceable(16) %underlying_, double noundef 0x47EFFFFFE0000000, double noundef %add)
  call void @llvm.lifetime.start.p0(i64 328, ptr nonnull %previous) #27
  %3 = load double, ptr %putStrike_, align 8, !tbaa !87
  %putLeftEps_ = getelementptr inbounds nuw i8, ptr %this, i64 264
  %4 = load double, ptr %putLeftEps_, align 8, !tbaa !79
  %sub = fsub double %3, %4
  invoke void @_ZN8QuantLib19CappedFlooredCouponC1ERKN5boost10shared_ptrINS_18FloatingRateCouponEEEdd(ptr noundef nonnull align 8 dereferenceable(216) %previous, ptr noundef nonnull align 8 dereferenceable(16) %underlying_, double noundef 0x47EFFFFFE0000000, double noundef %sub)
          to label %invoke.cont8 unwind label %lpad

invoke.cont8:                                     ; preds = %invoke.cont
  %call11 = invoke noundef double @_ZNK8QuantLib19CappedFlooredCoupon4rateEv(ptr noundef nonnull align 8 dereferenceable(216) %next)
          to label %invoke.cont10 unwind label %lpad9

invoke.cont10:                                    ; preds = %invoke.cont8
  %call13 = invoke noundef double @_ZNK8QuantLib19CappedFlooredCoupon4rateEv(ptr noundef nonnull align 8 dereferenceable(216) %previous)
          to label %invoke.cont12 unwind label %lpad9

invoke.cont12:                                    ; preds = %invoke.cont10
  %sub14 = fsub double %call11, %call13
  %5 = load double, ptr %putLeftEps_, align 8, !tbaa !79
  %6 = load double, ptr %putRightEps_, align 8, !tbaa !78
  %add17 = fadd double %5, %6
  %div = fdiv double %sub14, %add17
  %mul = fmul double %cond, %div
  %7 = load i8, ptr %isPutCashOrNothing_, align 1, !tbaa !69, !range !26, !noundef !27
  %loadedv19 = trunc nuw i8 %7 to i1
  br i1 %loadedv19, label %if.end, label %invoke.cont24

invoke.cont24:                                    ; preds = %invoke.cont12
  call void @llvm.lifetime.start.p0(i64 328, ptr nonnull %atStrike) #27
  %8 = load double, ptr %putStrike_, align 8, !tbaa !87
  invoke void @_ZN8QuantLib19CappedFlooredCouponC1ERKN5boost10shared_ptrINS_18FloatingRateCouponEEEdd(ptr noundef nonnull align 8 dereferenceable(216) %atStrike, ptr noundef nonnull align 8 dereferenceable(16) %underlying_, double noundef 0x47EFFFFFE0000000, double noundef %8)
          to label %invoke.cont27 unwind label %lpad23

invoke.cont27:                                    ; preds = %invoke.cont24
  %9 = load ptr, ptr %underlying_, align 8, !tbaa !50
  %cmp.not.i = icmp eq ptr %9, null
  br i1 %cmp.not.i, label %cond.false.i, label %invoke.cont30, !prof !52

cond.false.i:                                     ; preds = %invoke.cont27
  invoke void @_ZN5boost16assertion_failedEPKcS1_S1_l(ptr noundef nonnull @.str.16, ptr noundef nonnull @__PRETTY_FUNCTION__._ZNK5boost10shared_ptrIN8QuantLib18FloatingRateCouponEEptEv, ptr noundef nonnull @.str.17, i64 noundef 784)
          to label %.noexc unwind label %lpad29

.noexc:                                           ; preds = %cond.false.i
  %.pre.i = load ptr, ptr %underlying_, align 8, !tbaa !50
  br label %invoke.cont30

invoke.cont30:                                    ; preds = %.noexc, %invoke.cont27
  %10 = phi ptr [ %9, %invoke.cont27 ], [ %.pre.i, %.noexc ]
  %vtable = load ptr, ptr %10, align 8, !tbaa !33
  %vfn = getelementptr inbounds i8, ptr %vtable, i64 72
  %11 = load ptr, ptr %vfn, align 8
  %call33 = invoke noundef double %11(ptr noundef nonnull align 8 dereferenceable(176) %10)
          to label %invoke.cont32 unwind label %lpad29

invoke.cont32:                                    ; preds = %invoke.cont30
  %call35 = invoke noundef double @_ZNK8QuantLib19CappedFlooredCoupon4rateEv(ptr noundef nonnull align 8 dereferenceable(216) %atStrike)
          to label %invoke.cont34 unwind label %lpad29

invoke.cont34:                                    ; preds = %invoke.cont32
  %add36 = fsub double %call35, %call33
  %sub37 = fsub double %mul, %add36
  call void @_ZN8QuantLib19CappedFlooredCouponD1Ev(ptr noundef nonnull align 8 dereferenceable(216) %atStrike) #27
  call void @llvm.lifetime.end.p0(i64 328, ptr nonnull %atStrike) #27
  br label %if.end

lpad:                                             ; preds = %invoke.cont
  %12 = landingpad { ptr, i32 }
          cleanup
  br label %ehcleanup39

lpad9:                                            ; preds = %invoke.cont10, %invoke.cont8
  %13 = landingpad { ptr, i32 }
          cleanup
  br label %ehcleanup38

lpad23:                                           ; preds = %invoke.cont24
  %14 = landingpad { ptr, i32 }
          cleanup
  br label %ehcleanup

lpad29:                                           ; preds = %cond.false.i, %invoke.cont32, %invoke.cont30
  %15 = landingpad { ptr, i32 }
          cleanup
  call void @_ZN8QuantLib19CappedFlooredCouponD1Ev(ptr noundef nonnull align 8 dereferenceable(216) %atStrike) #27
  br label %ehcleanup

ehcleanup:                                        ; preds = %lpad29, %lpad23
  %.pn = phi { ptr, i32 } [ %15, %lpad29 ], [ %14, %lpad23 ]
  call void @llvm.lifetime.end.p0(i64 328, ptr nonnull %atStrike) #27
  br label %ehcleanup38

if.end:                                           ; preds = %invoke.cont34, %invoke.cont12
  %putOptionRate.1 = phi double [ %mul, %invoke.cont12 ], [ %sub37, %invoke.cont34 ]
  call void @_ZN8QuantLib19CappedFlooredCouponD1Ev(ptr noundef nonnull align 8 dereferenceable(216) %previous) #27
  call void @llvm.lifetime.end.p0(i64 328, ptr nonnull %previous) #27
  call void @_ZN8QuantLib19CappedFlooredCouponD1Ev(ptr noundef nonnull align 8 dereferenceable(216) %next) #27
  call void @llvm.lifetime.end.p0(i64 328, ptr nonnull %next) #27
  br label %if.end42

ehcleanup38:                                      ; preds = %ehcleanup, %lpad9
  %.pn.pn = phi { ptr, i32 } [ %.pn, %ehcleanup ], [ %13, %lpad9 ]
  call void @_ZN8QuantLib19CappedFlooredCouponD1Ev(ptr noundef nonnull align 8 dereferenceable(216) %previous) #27
  br label %ehcleanup39

ehcleanup39:                                      ; preds = %ehcleanup38, %lpad
  %.pn.pn.pn = phi { ptr, i32 } [ %.pn.pn, %ehcleanup38 ], [ %12, %lpad ]
  call void @llvm.lifetime.end.p0(i64 328, ptr nonnull %previous) #27
  call void @_ZN8QuantLib19CappedFlooredCouponD1Ev(ptr noundef nonnull align 8 dereferenceable(216) %next) #27
  call void @llvm.lifetime.end.p0(i64 328, ptr nonnull %next) #27
  resume { ptr, i32 } %.pn.pn.pn

if.end42:                                         ; preds = %if.end, %entry
  %putOptionRate.0 = phi double [ %putOptionRate.1, %if.end ], [ 0.000000e+00, %entry ]
  ret double %putOptionRate.0
}